target datalayout = "e-m:e-p270:32:32-p271:32:32-p272:64:64-i64:64-i128:128-f80:128-n8:16:32:64-S128"
target triple = "x86_64-pc-linux-gnu"

%struct.DICTIONARY_ID = type { i64 }
%"class.std::__shared_count" = type { ptr }
%"class.toku::locktree" = type { ptr, %struct.DICTIONARY_ID, i32, [4 x i8], %"class.toku::comparator", ptr, ptr, ptr, ptr, %"struct.toku::lt_lock_request_info", i64, %"class.toku::range_buffer", i32, i64, i64 }
%"class.toku::comparator" = type <{ ptr, ptr, i8, [7 x i8] }>
%"struct.toku::lt_lock_request_info" = type <{ %"class.toku::omt", %"struct.std::atomic", [7 x i8], %"class.std::shared_ptr.0", i8, [7 x i8], %"struct.toku::lt_counters", %"struct.std::atomic.3", i64, %struct.toku_mutex_t, %struct.toku_cond_t, i8, [7 x i8] }>
%"class.toku::omt" = type { i8, i32, %union.anon }
%union.anon = type { %"struct.toku::omt<toku::lock_request *>::omt_array" }
%"struct.toku::omt<toku::lock_request *>::omt_array" = type { i32, i32, ptr }
%"struct.std::atomic" = type { %"struct.std::__atomic_base" }
%"struct.std::__atomic_base" = type { i8 }
%"class.std::shared_ptr.0" = type { %"class.std::__shared_ptr.1" }
%"class.std::__shared_ptr.1" = type { ptr, %"class.std::__shared_count" }
%"struct.toku::lt_counters" = type { i64, i64, i64, i64, i64 }
%"struct.std::atomic.3" = type { %"struct.std::__atomic_base.4" }
%"struct.std::__atomic_base.4" = type { i64 }
%struct.toku_mutex_t = type { %union.pthread_mutex_t, ptr }
%union.pthread_mutex_t = type { %struct.__pthread_mutex_s }
%struct.__pthread_mutex_s = type { i32, i32, i32, i32, i32, i16, i16, %struct.__pthread_internal_list }
%struct.__pthread_internal_list = type { ptr, ptr }
%struct.toku_cond_t = type { %union.pthread_cond_t, ptr }
%union.pthread_cond_t = type { %struct.__pthread_cond_s }
%struct.__pthread_cond_s = type { %union.__atomic_wide_counter, %union.__atomic_wide_counter, [2 x i32], [2 x i32], i32, i32, [2 x i32] }
%union.__atomic_wide_counter = type { i64 }
%"class.toku::range_buffer" = type <{ %class.memarena, i32, [4 x i8] }>
%class.memarena = type { %"struct.memarena::arena_chunk", ptr, i32, i64, i64 }
%"struct.memarena::arena_chunk" = type { ptr, i64, i64 }
%"class.toku::keyrange" = type <{ %struct.__toku_dbt, %struct.__toku_dbt, ptr, ptr, i8, [7 x i8] }>
%struct.__toku_dbt = type { ptr, i64, i64, i32 }

; Function Attrs: mustprogress nounwind uwtable
define linkonce_odr void @_Z15toku_unsafe_setIiEvPT_S0_(ptr noundef %0, i32 noundef %1) #5 comdat {
  %3 = alloca ptr, align 8
  %4 = alloca i32, align 4
  store ptr %0, ptr %3, align 8, !tbaa !87
  store i32 %1, ptr %4, align 4, !tbaa !81
  %5 = load i32, ptr %4, align 4, !tbaa !81
  %6 = load ptr, ptr %3, align 8, !tbaa !87
  store i32 %5, ptr %6, align 4, !tbaa !81
  ret void
}

; Function Attrs: mustprogress uwtable
define linkonce_odr void @_Z15toku_unsafe_setIiEvRT_S0_(ptr noundef nonnull align 4 dereferenceable(4) %0, i32 noundef %1) #0 comdat {
  %3 = alloca ptr, align 8
  %4 = alloca i32, align 4
  store ptr %0, ptr %3, align 8, !tbaa !87
  store i32 %1, ptr %4, align 4, !tbaa !81
  %5 = load ptr, ptr %3, align 8, !tbaa !87
  %6 = load i32, ptr %4, align 4, !tbaa !81
  call void @_Z15toku_unsafe_setIiEvPT_S0_(ptr noundef %5, i32 noundef %6)
  ret void
}

; Function Attrs: mustprogress uwtable
define void @_ZN4toku8locktree7sto_endEv(ptr noundef nonnull align 8 dereferenceable(400) %0) #0 align 2 {
  %2 = alloca ptr, align 8
  %3 = alloca i64, align 8
  store ptr %0, ptr %2, align 8, !tbaa !4
  %4 = load ptr, ptr %2, align 8
  call void @llvm.lifetime.start.p0(i64 8, ptr %3) #18
  %5 = getelementptr inbounds nuw %"class.toku::locktree", ptr %4, i32 0, i32 11
  %6 = call noundef i64 @_ZNK4toku12range_buffer17total_memory_sizeEv(ptr noundef nonnull align 8 dereferenceable(60) %5)
  store i64 %6, ptr %3, align 8, !tbaa !46
  %7 = getelementptr inbounds nuw %"class.toku::locktree", ptr %4, i32 0, i32 0
  %8 = load ptr, ptr %7, align 8, !tbaa !15
  %9 = icmp ne ptr %8, null
  br i1 %9, label %10, label %14

10:                                               ; preds = %1
  %11 = getelementptr inbounds nuw %"class.toku::locktree", ptr %4, i32 0, i32 0
  %12 = load ptr, ptr %11, align 8, !tbaa !15
  %13 = load i64, ptr %3, align 8, !tbaa !46
  call void @_ZN4toku16locktree_manager17note_mem_releasedEm(ptr noundef nonnull align 8 dereferenceable(392) %12, i64 noundef %13)
  br label %14

14:                                               ; preds = %10, %1
  %15 = getelementptr inbounds nuw %"class.toku::locktree", ptr %4, i32 0, i32 11
  call void @_ZN4toku12range_buffer7destroyEv(ptr noundef nonnull align 8 dereferenceable(60) %15)
  %16 = getelementptr inbounds nuw %"class.toku::locktree", ptr %4, i32 0, i32 11
  call void @_ZN4toku12range_buffer6createEv(ptr noundef nonnull align 8 dereferenceable(60) %16)
  %17 = getelementptr inbounds nuw %"class.toku::locktree", ptr %4, i32 0, i32 10
  store i64 0, ptr %17, align 8, !tbaa !50
  call void @llvm.lifetime.end.p0(i64 8, ptr %3) #18
  ret void
}

; Function Attrs: mustprogress uwtable
define void @_ZN4toku8locktree27sto_end_early_no_accountingEPv(ptr noundef nonnull align 8 dereferenceable(400) %0, ptr noundef %1) #0 align 2 {
  %3 = alloca ptr, align 8
  %4 = alloca ptr, align 8
  store ptr %0, ptr %3, align 8, !tbaa !4
  store ptr %1, ptr %4, align 8, !tbaa !55
  %5 = load ptr, ptr %3, align 8
  %6 = load ptr, ptr %4, align 8, !tbaa !55
  call void @_ZN4toku8locktree33sto_migrate_buffer_ranges_to_treeEPv(ptr noundef nonnull align 8 dereferenceable(400) %5, ptr noundef %6)
  call void @_ZN4toku8locktree7sto_endEv(ptr noundef nonnull align 8 dereferenceable(400) %5)
  %7 = getelementptr inbounds nuw %"class.toku::locktree", ptr %5, i32 0, i32 12
  call void @_Z15toku_unsafe_setIiEvRT_S0_(ptr noundef nonnull align 4 dereferenceable(4) %7, i32 noundef 0)
  ret void
}

; Function Attrs: inlinehint mustprogress nounwind uwtable
define internal noundef i64 @_ZL13toku_time_nowv() #4 {
  %1 = alloca i32, align 4
  %2 = alloca i32, align 4
  call void @llvm.lifetime.start.p0(i64 4, ptr %1) #18
  call void @llvm.lifetime.start.p0(i64 4, ptr %2) #18
  %3 = call { i32, i32 } asm sideeffect "rdtsc", "={ax},={dx},~{dirflag},~{fpsr},~{flags}"() #18, !srcloc !96
  %4 = extractvalue { i32, i32 } %3, 0
  %5 = extractvalue { i32, i32 } %3, 1
  store i32 %4, ptr %1, align 4, !tbaa !81
  store i32 %5, ptr %2, align 4, !tbaa !81
  %6 = load i32, ptr %2, align 4, !tbaa !81
  %7 = zext i32 %6 to i64
  %8 = shl i64 %7, 32
  %9 = load i32, ptr %1, align 4, !tbaa !81
  %10 = zext i32 %9 to i64
  %11 = or i64 %8, %10
  call void @llvm.lifetime.end.p0(i64 4, ptr %2) #18
  call void @llvm.lifetime.end.p0(i64 4, ptr %1) #18
  ret i64 %11
}

; Function Attrs: mustprogress nounwind uwtable
define linkonce_odr noundef i32 @_Z17toku_unsafe_fetchIiET_PS0_(ptr noundef %0) #5 comdat {
  %2 = alloca ptr, align 8
  %3 = alloca i32, align 4
  store ptr %0, ptr %2, align 8, !tbaa !87
  call void @llvm.lifetime.start.p0(i64 4, ptr %3) #18
  %4 = load ptr, ptr %2, align 8, !tbaa !87
  %5 = load i32, ptr %4, align 4, !tbaa !81
  store i32 %5, ptr %3, align 4, !tbaa !81
  %6 = load i32, ptr %3, align 4, !tbaa !81
  call void @llvm.lifetime.end.p0(i64 4, ptr %3) #18
  ret i32 %6
}

; Function Attrs: mustprogress uwtable
define void @_ZN4toku8locktree10sto_appendEPK10__toku_dbtS3_b(ptr noundef nonnull align 8 dereferenceable(400) %0, ptr noundef %1, ptr noundef %2, i1 noundef zeroext %3) #0 align 2 {
  %5 = alloca ptr, align 8
  %6 = alloca ptr, align 8
  %7 = alloca ptr, align 8
  %8 = alloca i8, align 1
  %9 = alloca i64, align 8
  %10 = alloca i64, align 8
  %11 = alloca %"class.toku::keyrange", align 8
  store ptr %0, ptr %5, align 8, !tbaa !4
  store ptr %1, ptr %6, align 8, !tbaa !89
  store ptr %2, ptr %7, align 8, !tbaa !89
  %12 = zext i1 %3 to i8
  store i8 %12, ptr %8, align 1, !tbaa !67
  %13 = load ptr, ptr %5, align 8
  call void @llvm.lifetime.start.p0(i64 8, ptr %9) #18
  call void @llvm.lifetime.start.p0(i64 8, ptr %10) #18
  call void @llvm.lifetime.start.p0(i64 88, ptr %11) #18
  %14 = load ptr, ptr %6, align 8, !tbaa !89
  %15 = load ptr, ptr %7, align 8, !tbaa !89
  call void @_ZN4toku8keyrange6createEPK10__toku_dbtS3_(ptr noundef nonnull align 8 dereferenceable(81) %11, ptr noundef %14, ptr noundef %15)
  %16 = getelementptr inbounds nuw %"class.toku::locktree", ptr %13, i32 0, i32 11
  %17 = call noundef i64 @_ZNK4toku12range_buffer17total_memory_sizeEv(ptr noundef nonnull align 8 dereferenceable(60) %16)
  store i64 %17, ptr %9, align 8, !tbaa !46
  %18 = getelementptr inbounds nuw %"class.toku::locktree", ptr %13, i32 0, i32 11
  %19 = load ptr, ptr %6, align 8, !tbaa !89
  %20 = load ptr, ptr %7, align 8, !tbaa !89
  %21 = load i8, ptr %8, align 1, !tbaa !67, !range !68, !noundef !69
  %22 = trunc i8 %21 to i1
  call void @_ZN4toku12range_buffer6appendEPK10__toku_dbtS3_b(ptr noundef nonnull align 8 dereferenceable(60) %18, ptr noundef %19, ptr noundef %20, i1 noundef zeroext %22)
  %23 = getelementptr inbounds nuw %"class.toku::locktree", ptr %13, i32 0, i32 11
  %24 = call noundef i64 @_ZNK4toku12range_buffer17total_memory_sizeEv(ptr noundef nonnull align 8 dereferenceable(60) %23)
  %25 = load i64, ptr %9, align 8, !tbaa !46
  %26 = sub i64 %24, %25
  store i64 %26, ptr %10, align 8, !tbaa !46
  %27 = getelementptr inbounds nuw %"class.toku::locktree", ptr %13, i32 0, i32 0
  %28 = load ptr, ptr %27, align 8, !tbaa !15
  %29 = icmp ne ptr %28, null
  br i1 %29, label %30, label %34

30:                                               ; preds = %4
  %31 = getelementptr inbounds nuw %"class.toku::locktree", ptr %13, i32 0, i32 0
  %32 = load ptr, ptr %31, align 8, !tbaa !15
  %33 = load i64, ptr %10, align 8, !tbaa !46
  call void @_ZN4toku16locktree_manager13note_mem_usedEm(ptr noundef nonnull align 8 dereferenceable(392) %32, i64 noundef %33)
  br label %34

34:                                               ; preds = %30, %4
  call void @llvm.lifetime.end.p0(i64 88, ptr %11) #18
  call void @llvm.lifetime.end.p0(i64 8, ptr %10) #18
  call void @llvm.lifetime.end.p0(i64 8, ptr %9) #18
  ret void
}

; Function Attrs: mustprogress uwtable
define void @_ZN4toku8locktree13sto_end_earlyEPv(ptr noundef nonnull align 8 dereferenceable(400) %0, ptr noundef %1) #0 align 2 {
  %3 = alloca ptr, align 8
  %4 = alloca ptr, align 8
  %5 = alloca i64, align 8
  %6 = alloca i64, align 8
  store ptr %0, ptr %3, align 8, !tbaa !4
  store ptr %1, ptr %4, align 8, !tbaa !55
  %7 = load ptr, ptr %3, align 8
  %8 = getelementptr inbounds nuw %"class.toku::locktree", ptr %7, i32 0, i32 13
  %9 = load i64, ptr %8, align 8, !tbaa !52
  %10 = add i64 %9, 1
  store i64 %10, ptr %8, align 8, !tbaa !52
  call void @llvm.lifetime.start.p0(i64 8, ptr %5) #18
  %11 = call noundef i64 @_ZL13toku_time_nowv()
  store i64 %11, ptr %5, align 8, !tbaa !46
  %12 = load ptr, ptr %4, align 8, !tbaa !55
  call void @_ZN4toku8locktree27sto_end_early_no_accountingEPv(ptr noundef nonnull align 8 dereferenceable(400) %7, ptr noundef %12)
  call void @llvm.lifetime.start.p0(i64 8, ptr %6) #18
  %13 = call noundef i64 @_ZL13toku_time_nowv()
  store i64 %13, ptr %6, align 8, !tbaa !46
  %14 = load i64, ptr %6, align 8, !tbaa !46
  %15 = load i64, ptr %5, align 8, !tbaa !46
  %16 = sub i64 %14, %15
  %17 = getelementptr inbounds nuw %"class.toku::locktree", ptr %7, i32 0, i32 14
  %18 = load i64, ptr %17, align 8, !tbaa !53
  %19 = add i64 %18, %16
  store i64 %19, ptr %17, align 8, !tbaa !53
  call void @llvm.lifetime.end.p0(i64 8, ptr %6) #18
  call void @llvm.lifetime.end.p0(i64 8, ptr %5) #18
  ret void
}

; Function Attrs: mustprogress uwtable
define void @_ZN4toku8locktree9sto_beginEm(ptr noundef nonnull align 8 dereferenceable(400) %0, i64 noundef %1) #0 align 2 {
  %3 = alloca ptr, align 8
  %4 = alloca i64, align 8
  store ptr %0, ptr %3, align 8, !tbaa !4
  store i64 %1, ptr %4, align 8, !tbaa !46
  %5 = load ptr, ptr %3, align 8
  %6 = getelementptr inbounds nuw %"class.toku::locktree", ptr %5, i32 0, i32 11
  %7 = call noundef zeroext i1 @_ZNK4toku12range_buffer8is_emptyEv(ptr noundef nonnull align 8 dereferenceable(60) %6)
  %8 = load i64, ptr %4, align 8, !tbaa !46
  %9 = getelementptr inbounds nuw %"class.toku::locktree", ptr %5, i32 0, i32 10
  store i64 %8, ptr %9, align 8, !tbaa !50
  ret void
}

; Function Attrs: mustprogress uwtable
define linkonce_odr noundef i32 @_Z17toku_unsafe_fetchIiET_RS0_(ptr noundef nonnull align 4 dereferenceable(4) %0) #0 comdat {
  %2 = alloca ptr, align 8
  store ptr %0, ptr %2, align 8, !tbaa !87
  %3 = load ptr, ptr %2, align 8, !tbaa !87
  %4 = call noundef i32 @_Z17toku_unsafe_fetchIiET_PS0_(ptr noundef %3)
  ret i32 %4
}

; Function Attrs: mustprogress uwtable
define noundef zeroext i1 @_ZN4toku8locktree15sto_try_acquireEPvmPK10__toku_dbtS4_b(ptr noundef nonnull align 8 dereferenceable(400) %0, ptr noundef %1, i64 noundef %2, ptr noundef %3, ptr noundef %4, i1 noundef zeroext %5) #0 align 2 {
  %7 = alloca i1, align 1
  %8 = alloca ptr, align 8
  %9 = alloca ptr, align 8
  %10 = alloca i64, align 8
  %11 = alloca ptr, align 8
  %12 = alloca ptr, align 8
  %13 = alloca i8, align 1
  store ptr %0, ptr %8, align 8, !tbaa !4
  store ptr %1, ptr %9, align 8, !tbaa !55
  store i64 %2, ptr %10, align 8, !tbaa !46
  store ptr %3, ptr %11, align 8, !tbaa !89
  store ptr %4, ptr %12, align 8, !tbaa !89
  %14 = zext i1 %5 to i8
  store i8 %14, ptr %13, align 1, !tbaa !67
  %15 = load ptr, ptr %8, align 8
  %16 = getelementptr inbounds nuw %"class.toku::locktree", ptr %15, i32 0, i32 7
  %17 = load ptr, ptr %16, align 8, !tbaa !49
  %18 = call noundef zeroext i1 @_ZN4toku15concurrent_tree8is_emptyEv(ptr noundef nonnull align 8 dereferenceable(208) %17)
  br i1 %18, label %19, label %28

19:                                               ; preds = %6
  %20 = getelementptr inbounds nuw %"class.toku::locktree", ptr %15, i32 0, i32 11
  %21 = call noundef zeroext i1 @_ZNK4toku12range_buffer8is_emptyEv(ptr noundef nonnull align 8 dereferenceable(60) %20)
  br i1 %21, label %22, label %28

22:                                               ; preds = %19
  %23 = getelementptr inbounds nuw %"class.toku::locktree", ptr %15, i32 0, i32 12
  %24 = call noundef i32 @_Z17toku_unsafe_fetchIiET_RS0_(ptr noundef nonnull align 4 dereferenceable(4) %23)
  %25 = icmp sge i32 %24, 100
  br i1 %25, label %26, label %28

26:                                               ; preds = %22
  %27 = load i64, ptr %10, align 8, !tbaa !46
  call void @_ZN4toku8locktree9sto_beginEm(ptr noundef nonnull align 8 dereferenceable(400) %15, i64 noundef %27)
  br label %45

28:                                               ; preds = %22, %19, %6
  %29 = getelementptr inbounds nuw %"class.toku::locktree", ptr %15, i32 0, i32 10
  %30 = load i64, ptr %29, align 8, !tbaa !50
  %31 = icmp ne i64 %30, 0
  br i1 %31, label %32, label %44

32:                                               ; preds = %28
  %33 = getelementptr inbounds nuw %"class.toku::locktree", ptr %15, i32 0, i32 10
  %34 = load i64, ptr %33, align 8, !tbaa !50
  %35 = load i64, ptr %10, align 8, !tbaa !46
  %36 = icmp ne i64 %34, %35
  br i1 %36, label %41, label %37

37:                                               ; preds = %32
  %38 = getelementptr inbounds nuw %"class.toku::locktree", ptr %15, i32 0, i32 11
  %39 = call noundef i32 @_ZNK4toku12range_buffer14get_num_rangesEv(ptr noundef nonnull align 8 dereferenceable(60) %38)
  %40 = icmp sgt i32 %39, 51200
  br i1 %40, label %41, label %43

41:                                               ; preds = %37, %32
  %42 = load ptr, ptr %9, align 8, !tbaa !55
  call void @_ZN4toku8locktree13sto_end_earlyEPv(ptr noundef nonnull align 8 dereferenceable(400) %15, ptr noundef %42)
  br label %43

43:                                               ; preds = %41, %37
  br label %44

44:                                               ; preds = %43, %28
  br label %45

45:                                               ; preds = %44, %26
  %46 = getelementptr inbounds nuw %"class.toku::locktree", ptr %15, i32 0, i32 10
  %47 = load i64, ptr %46, align 8, !tbaa !50
  %48 = icmp ne i64 %47, 0
  br i1 %48, label %49, label %54

49:                                               ; preds = %45
  %50 = load ptr, ptr %11, align 8, !tbaa !89
  %51 = load ptr, ptr %12, align 8, !tbaa !89
  %52 = load i8, ptr %13, align 1, !tbaa !67, !range !68, !noundef !69
  %53 = trunc i8 %52 to i1
  call void @_ZN4toku8locktree10sto_appendEPK10__toku_dbtS3_b(ptr noundef nonnull align 8 dereferenceable(400) %15, ptr noundef %50, ptr noundef %51, i1 noundef zeroext %53)
  store i1 true, ptr %7, align 1
  br label %57

54:                                               ; preds = %45
  %55 = getelementptr inbounds nuw %"class.toku::locktree", ptr %15, i32 0, i32 11
  %56 = call noundef zeroext i1 @_ZNK4toku12range_buffer8is_emptyEv(ptr noundef nonnull align 8 dereferenceable(60) %55)
  store i1 false, ptr %7, align 1
  br label %57

57:                                               ; preds = %54, %49
  %58 = load i1, ptr %7, align 1
  ret i1 %58
}