; Function Attrs: mustprogress uwtable
define noundef zeroext i1 @_ZN4toku8locktree15sto_try_acquireEPvmPK10__toku_dbtS4_b(ptr noundef nonnull align 8 dereferenceable(400) %0, ptr noundef %1, i64 noundef %2, ptr noundef %3, ptr noundef %4, i1 noundef zeroext %5) local_unnamed_addr #0 align 2 {
  %7 = alloca %"class.toku::keyrange", align 8
  %8 = getelementptr inbounds nuw i8, ptr %0, i64 64
  %9 = load ptr, ptr %8, align 8, !tbaa !44
  %10 = tail call noundef zeroext i1 @_ZN4toku15concurrent_tree8is_emptyEv(ptr noundef nonnull align 8 dereferenceable(208) %9)
  br i1 %10, label %11, label %20

11:                                               ; preds = %6
  %12 = getelementptr inbounds nuw i8, ptr %0, i64 312
  %13 = tail call noundef zeroext i1 @_ZNK4toku12range_buffer8is_emptyEv(ptr noundef nonnull align 8 dereferenceable(60) %12)
  %14 = getelementptr inbounds nuw i8, ptr %0, i64 376
  %15 = load i32, ptr %14, align 8
  %16 = icmp sgt i32 %15, 99
  %or.cond = select i1 %13, i1 %16, i1 false
  br i1 %or.cond, label %17, label %20

17:                                               ; preds = %11
  %18 = tail call noundef zeroext i1 @_ZNK4toku12range_buffer8is_emptyEv(ptr noundef nonnull align 8 dereferenceable(60) %12)
  %19 = getelementptr inbounds nuw i8, ptr %0, i64 304
  store i64 %2, ptr %19, align 8, !tbaa !45
  br label %52

20:                                               ; preds = %11, %6
  %21 = getelementptr inbounds nuw i8, ptr %0, i64 304
  %22 = load i64, ptr %21, align 8, !tbaa !45
  %.not = icmp eq i64 %22, 0
  br i1 %.not, label %52, label %23

23:                                               ; preds = %20
  %.not8 = icmp eq i64 %22, %2
  br i1 %.not8, label %24, label %28

24:                                               ; preds = %23
  %25 = getelementptr inbounds nuw i8, ptr %0, i64 312
  %26 = tail call noundef i32 @_ZNK4toku12range_buffer14get_num_rangesEv(ptr noundef nonnull align 8 dereferenceable(60) %25)
  %27 = icmp sgt i32 %26, 51200
  br i1 %27, label %28, label %52

28:                                               ; preds = %24, %23
  %29 = getelementptr inbounds nuw i8, ptr %0, i64 384
  %30 = load i64, ptr %29, align 8, !tbaa !86
  %31 = add i64 %30, 1
  store i64 %31, ptr %29, align 8, !tbaa !86
  %32 = tail call { i32, i32 } asm sideeffect "rdtsc", "={ax},={dx},~{dirflag},~{fpsr},~{flags}"() #21, !srcloc !87
  tail call void @_ZN4toku8locktree33sto_migrate_buffer_ranges_to_treeEPv(ptr noundef nonnull align 8 dereferenceable(400) %0, ptr noundef %1)
  %33 = getelementptr inbounds nuw i8, ptr %0, i64 312
  %34 = tail call noundef i64 @_ZNK4toku12range_buffer17total_memory_sizeEv(ptr noundef nonnull align 8 dereferenceable(60) %33)
  %35 = load ptr, ptr %0, align 8, !tbaa !4
  %.not.i.i.i = icmp eq ptr %35, null
  br i1 %.not.i.i.i, label %_ZN4toku8locktree13sto_end_earlyEPv.exit, label %36

36:                                               ; preds = %28
  tail call void @_ZN4toku16locktree_manager17note_mem_releasedEm(ptr noundef nonnull align 8 dereferenceable(392) %35, i64 noundef %34)
  br label %_ZN4toku8locktree13sto_end_earlyEPv.exit

_ZN4toku8locktree13sto_end_earlyEPv.exit:         ; preds = %28, %36
  %37 = extractvalue { i32, i32 } %32, 1
  %.neg6.i = sub i32 0, %37
  %.neg6.z.i = zext i32 %.neg6.i to i64
  %.neg5.i = shl nuw i64 %.neg6.z.i, 32
  %38 = extractvalue { i32, i32 } %32, 0
  %39 = zext i32 %38 to i64
  tail call void @_ZN4toku12range_buffer7destroyEv(ptr noundef nonnull align 8 dereferenceable(60) %33)
  tail call void @_ZN4toku12range_buffer6createEv(ptr noundef nonnull align 8 dereferenceable(60) %33)
  store i64 0, ptr %21, align 8, !tbaa !45
  %40 = getelementptr inbounds nuw i8, ptr %0, i64 376
  store i32 0, ptr %40, align 8, !tbaa !53
  %41 = tail call { i32, i32 } asm sideeffect "rdtsc", "={ax},={dx},~{dirflag},~{fpsr},~{flags}"() #21, !srcloc !87
  %42 = extractvalue { i32, i32 } %41, 0
  %43 = extractvalue { i32, i32 } %41, 1
  %44 = zext i32 %43 to i64
  %45 = shl nuw i64 %44, 32
  %46 = zext i32 %42 to i64
  %.neg4.i = sub i64 %.neg5.i, %39
  %47 = getelementptr inbounds nuw i8, ptr %0, i64 392
  %48 = load i64, ptr %47, align 8, !tbaa !88
  %49 = add i64 %.neg4.i, %48
  %50 = add i64 %49, %46
  %51 = add i64 %50, %45
  store i64 %51, ptr %47, align 8, !tbaa !88
  br label %52

52:                                               ; preds = %20, %_ZN4toku8locktree13sto_end_earlyEPv.exit, %24, %17
  %53 = getelementptr inbounds nuw i8, ptr %0, i64 304
  %54 = load i64, ptr %53, align 8, !tbaa !45
  %.not9 = icmp ne i64 %54, 0
  br i1 %.not9, label %55, label %62

55:                                               ; preds = %52
  call void @llvm.lifetime.start.p0(i64 88, ptr nonnull %7) #21
  call void @_ZN4toku8keyrange6createEPK10__toku_dbtS3_(ptr noundef nonnull align 8 dereferenceable(81) %7, ptr noundef %3, ptr noundef %4)
  %56 = getelementptr inbounds nuw i8, ptr %0, i64 312
  %57 = call noundef i64 @_ZNK4toku12range_buffer17total_memory_sizeEv(ptr noundef nonnull align 8 dereferenceable(60) %56)
  call void @_ZN4toku12range_buffer6appendEPK10__toku_dbtS3_b(ptr noundef nonnull align 8 dereferenceable(60) %56, ptr noundef %3, ptr noundef %4, i1 noundef zeroext %5)
  %58 = call noundef i64 @_ZNK4toku12range_buffer17total_memory_sizeEv(ptr noundef nonnull align 8 dereferenceable(60) %56)
  %59 = load ptr, ptr %0, align 8, !tbaa !4
  %.not.i = icmp eq ptr %59, null
  br i1 %.not.i, label %_ZN4toku8locktree10sto_appendEPK10__toku_dbtS3_b.exit, label %60

60:                                               ; preds = %55
  %61 = sub i64 %58, %57
  call void @_ZN4toku16locktree_manager13note_mem_usedEm(ptr noundef nonnull align 8 dereferenceable(392) %59, i64 noundef %61)
  br label %_ZN4toku8locktree10sto_appendEPK10__toku_dbtS3_b.exit

_ZN4toku8locktree10sto_appendEPK10__toku_dbtS3_b.exit: ; preds = %55, %60
  call void @llvm.lifetime.end.p0(i64 88, ptr nonnull %7) #21
  br label %65

62:                                               ; preds = %52
  %63 = getelementptr inbounds nuw i8, ptr %0, i64 312
  %64 = tail call noundef zeroext i1 @_ZNK4toku12range_buffer8is_emptyEv(ptr noundef nonnull align 8 dereferenceable(60) %63)
  br label %65

65:                                               ; preds = %62, %_ZN4toku8locktree10sto_appendEPK10__toku_dbtS3_b.exit
  ret i1 %.not9
}